target datalayout = "e-m:e-p270:32:32-p271:32:32-p272:64:64-i64:64-i128:128-f80:128-n8:16:32:64-S128"
target triple = "x86_64-unknown-linux-gnu"

%"class.sat::literal" = type { i32 }
%"class.sat::aig_cuts" = type { %class.random_gen, %"struct.sat::aig_cuts::config", %class.vector, %class.svector, %class.region, %"class.sat::cut_set", %"class.sat::cut_set", %"class.sat::cut_set", %class.vector.1, %class.svector.2, %class.svector.2, i32, i32, %class.svector.4, i32, %"class.std::function", %"class.std::function", %"class.std::function.6", %"class.std::function.6", %class.svector, [6 x ptr], [6 x i64], [6 x %"class.sat::literal"] }
%class.random_gen = type { i32 }
%"struct.sat::aig_cuts::config" = type <{ i32, i32, i32, i8, [3 x i8] }>
%class.vector = type { ptr }
%class.region = type { ptr, ptr, ptr, ptr, ptr }
%"class.sat::cut_set" = type { i32, ptr, i32, i32, ptr }
%class.vector.1 = type { ptr }
%class.svector.2 = type { %class.vector.3 }
%class.vector.3 = type { ptr }
%class.svector.4 = type { %class.vector.5 }
%class.vector.5 = type { ptr }
%"class.std::function" = type { %"class.std::_Function_base", ptr }
%"class.std::_Function_base" = type { %"union.std::_Any_data", ptr }
%"union.std::_Any_data" = type { %"union.std::_Nocopy_types" }
%"union.std::_Nocopy_types" = type { { i64, i64 } }
%"class.std::function.6" = type { %"class.std::_Function_base", ptr }
%class.svector = type { %class.vector.0 }
%class.vector.0 = type { ptr }
%"class.sat::cut" = type { i32, i32, [5 x i32], i64, i64 }

@.str.7 = private unnamed_addr constant [108 x i8] c"generated/home/dtcxzyw/WorkSpace/Projects/compilers/llvm-opt-benchmark/bench/z3/z3/src/sat/sat_aig_cuts.cpp\00", align 1
@.str.22 = private unnamed_addr constant [28 x i8] c"Failed to verify: c.add(w)\0A\00", align 1

; Function Attrs: mustprogress nounwind uwtable
define linkonce_odr hidden noundef i64 @_ZNK3sat3cut10table_maskEv(ptr noundef nonnull align 8 dereferenceable(48) %this) #4 comdat align 2 {
entry:
  %this.addr = alloca ptr, align 8
  store ptr %this, ptr %this.addr, align 8
  %this1 = load ptr, ptr %this.addr, align 8
  %m_size = getelementptr inbounds %"class.sat::cut", ptr %this1, i32 0, i32 1
  %0 = load i32, ptr %m_size, align 4
  %sh_prom = zext i32 %0 to i64
  %shl = shl i64 1, %sh_prom
  %shl2 = shl i64 1, %shl
  %sub = sub i64 %shl2, 1
  ret i64 %sub
}

; Function Attrs: mustprogress nounwind uwtable
define linkonce_odr hidden noundef i32 @_ZN3sat3cut12max_cut_sizeEv() #4 comdat align 2 {
entry:
  ret i32 5
}

; Function Attrs: mustprogress nounwind uwtable
define linkonce_odr hidden noundef i32 @_ZNK6vectorIjLb0EjE4sizeEv(ptr noundef nonnull align 8 dereferenceable(8) %this) #4 comdat align 2 {
entry:
  %retval = alloca i32, align 4
  %this.addr = alloca ptr, align 8
  store ptr %this, ptr %this.addr, align 8
  %this1 = load ptr, ptr %this.addr, align 8
  %m_data = getelementptr inbounds %class.vector.3, ptr %this1, i32 0, i32 0
  %0 = load ptr, ptr %m_data, align 8
  %cmp = icmp eq ptr %0, null
  br i1 %cmp, label %if.then, label %if.end

if.then:                                          ; preds = %entry
  store i32 0, ptr %retval, align 4
  br label %return

if.end:                                           ; preds = %entry
  %m_data2 = getelementptr inbounds %class.vector.3, ptr %this1, i32 0, i32 0
  %1 = load ptr, ptr %m_data2, align 8
  %arrayidx = getelementptr inbounds i32, ptr %1, i64 -1
  %2 = load i32, ptr %arrayidx, align 4
  store i32 %2, ptr %retval, align 4
  br label %return

return:                                           ; preds = %if.end, %if.then
  %3 = load i32, ptr %retval, align 4
  ret i32 %3
}

; Function Attrs: mustprogress nounwind uwtable
define linkonce_odr hidden noundef nonnull align 8 dereferenceable(32) ptr @_ZN6vectorIN3sat7cut_setELb1EjEixEj(ptr noundef nonnull align 8 dereferenceable(8) %this, i32 noundef %idx) #4 comdat align 2 {
entry:
  %this.addr = alloca ptr, align 8
  %idx.addr = alloca i32, align 4
  store ptr %this, ptr %this.addr, align 8
  store i32 %idx, ptr %idx.addr, align 4
  %this1 = load ptr, ptr %this.addr, align 8
  %m_data = getelementptr inbounds %class.vector.1, ptr %this1, i32 0, i32 0
  %0 = load ptr, ptr %m_data, align 8
  %1 = load i32, ptr %idx.addr, align 4
  %idxprom = zext i32 %1 to i64
  %arrayidx = getelementptr inbounds %"class.sat::cut_set", ptr %0, i64 %idxprom
  ret ptr %arrayidx
}

; Function Attrs: mustprogress uwtable
define linkonce_odr hidden void @_ZN3sat3cut9set_tableEm(ptr noundef nonnull align 8 dereferenceable(48) %this, i64 noundef %t) #5 comdat align 2 {
entry:
  %this.addr = alloca ptr, align 8
  %t.addr = alloca i64, align 8
  store ptr %this, ptr %this.addr, align 8
  store i64 %t, ptr %t.addr, align 8
  %this1 = load ptr, ptr %this.addr, align 8
  %0 = load i64, ptr %t.addr, align 8
  %call = call noundef i64 @_ZNK3sat3cut10table_maskEv(ptr noundef nonnull align 8 dereferenceable(48) %this1)
  %and = and i64 %0, %call
  %m_table = getelementptr inbounds %"class.sat::cut", ptr %this1, i32 0, i32 3
  store i64 %and, ptr %m_table, align 8
  ret void
}

; Function Attrs: mustprogress nounwind uwtable
define linkonce_odr hidden noundef zeroext i1 @_ZN3sat3cut3addEj(ptr noundef nonnull align 8 dereferenceable(48) %this, i32 noundef %i) #4 comdat align 2 {
entry:
  %retval = alloca i1, align 1
  %this.addr = alloca ptr, align 8
  %i.addr = alloca i32, align 4
  store ptr %this, ptr %this.addr, align 8
  store i32 %i, ptr %i.addr, align 4
  %this1 = load ptr, ptr %this.addr, align 8
  %m_size = getelementptr inbounds %"class.sat::cut", ptr %this1, i32 0, i32 1
  %0 = load i32, ptr %m_size, align 4
  %call = call noundef i32 @_ZN3sat3cut12max_cut_sizeEv()
  %cmp = icmp uge i32 %0, %call
  br i1 %cmp, label %if.then, label %if.else

if.then:                                          ; preds = %entry
  store i1 false, ptr %retval, align 1
  br label %return

if.else:                                          ; preds = %entry
  %1 = load i32, ptr %i.addr, align 4
  %m_elems = getelementptr inbounds %"class.sat::cut", ptr %this1, i32 0, i32 2
  %m_size2 = getelementptr inbounds %"class.sat::cut", ptr %this1, i32 0, i32 1
  %2 = load i32, ptr %m_size2, align 4
  %inc = add i32 %2, 1
  store i32 %inc, ptr %m_size2, align 4
  %idxprom = zext i32 %2 to i64
  %arrayidx = getelementptr inbounds [5 x i32], ptr %m_elems, i64 0, i64 %idxprom
  store i32 %1, ptr %arrayidx, align 4
  %3 = load i32, ptr %i.addr, align 4
  %and = and i32 %3, 31
  %shl = shl i32 1, %and
  %m_filter = getelementptr inbounds %"class.sat::cut", ptr %this1, i32 0, i32 0
  %4 = load i32, ptr %m_filter, align 8
  %or = or i32 %4, %shl
  store i32 %or, ptr %m_filter, align 8
  store i1 true, ptr %retval, align 1
  br label %return

return:                                           ; preds = %if.else, %if.then
  %5 = load i1, ptr %retval, align 1
  ret i1 %5
}

; Function Attrs: mustprogress nounwind uwtable
define linkonce_odr hidden void @_ZN3sat3cutC2Ev(ptr noundef nonnull align 8 dereferenceable(48) %this) unnamed_addr #4 comdat align 2 {
entry:
  %this.addr = alloca ptr, align 8
  store ptr %this, ptr %this.addr, align 8
  %this1 = load ptr, ptr %this.addr, align 8
  %m_filter = getelementptr inbounds %"class.sat::cut", ptr %this1, i32 0, i32 0
  store i32 0, ptr %m_filter, align 8
  %m_size = getelementptr inbounds %"class.sat::cut", ptr %this1, i32 0, i32 1
  store i32 0, ptr %m_size, align 4
  %m_table = getelementptr inbounds %"class.sat::cut", ptr %this1, i32 0, i32 3
  store i64 0, ptr %m_table, align 8
  %m_dont_care = getelementptr inbounds %"class.sat::cut", ptr %this1, i32 0, i32 4
  store i64 0, ptr %m_dont_care, align 8
  %m_elems = getelementptr inbounds %"class.sat::cut", ptr %this1, i32 0, i32 2
  %arrayidx = getelementptr inbounds [5 x i32], ptr %m_elems, i64 0, i64 4
  store i32 0, ptr %arrayidx, align 8
  %m_elems2 = getelementptr inbounds %"class.sat::cut", ptr %this1, i32 0, i32 2
  %arrayidx3 = getelementptr inbounds [5 x i32], ptr %m_elems2, i64 0, i64 3
  store i32 0, ptr %arrayidx3, align 4
  %m_elems4 = getelementptr inbounds %"class.sat::cut", ptr %this1, i32 0, i32 2
  %arrayidx5 = getelementptr inbounds [5 x i32], ptr %m_elems4, i64 0, i64 2
  store i32 0, ptr %arrayidx5, align 8
  %m_elems6 = getelementptr inbounds %"class.sat::cut", ptr %this1, i32 0, i32 2
  %arrayidx7 = getelementptr inbounds [5 x i32], ptr %m_elems6, i64 0, i64 1
  store i32 0, ptr %arrayidx7, align 4
  %m_elems8 = getelementptr inbounds %"class.sat::cut", ptr %this1, i32 0, i32 2
  %arrayidx9 = getelementptr inbounds [5 x i32], ptr %m_elems8, i64 0, i64 0
  store i32 0, ptr %arrayidx9, align 8
  ret void
}

; Function Attrs: mustprogress nounwind uwtable
define linkonce_odr hidden noundef ptr @_ZNK6vectorIjLb0EjE3endEv(ptr noundef nonnull align 8 dereferenceable(8) %this) #4 comdat align 2 {
entry:
  %this.addr = alloca ptr, align 8
  store ptr %this, ptr %this.addr, align 8
  %this1 = load ptr, ptr %this.addr, align 8
  %m_data = getelementptr inbounds %class.vector.3, ptr %this1, i32 0, i32 0
  %0 = load ptr, ptr %m_data, align 8
  %call = call noundef i32 @_ZNK6vectorIjLb0EjE4sizeEv(ptr noundef nonnull align 8 dereferenceable(8) %this1)
  %idx.ext = zext i32 %call to i64
  %add.ptr = getelementptr inbounds i32, ptr %0, i64 %idx.ext
  ret ptr %add.ptr
}

; Function Attrs: mustprogress nounwind uwtable
define linkonce_odr hidden noundef ptr @_ZNK6vectorIjLb0EjE5beginEv(ptr noundef nonnull align 8 dereferenceable(8) %this) #4 comdat align 2 {
entry:
  %this.addr = alloca ptr, align 8
  store ptr %this, ptr %this.addr, align 8
  %this1 = load ptr, ptr %this.addr, align 8
  %m_data = getelementptr inbounds %class.vector.3, ptr %this1, i32 0, i32 0
  %0 = load ptr, ptr %m_data, align 8
  ret ptr %0
}

; Function Attrs: mustprogress uwtable
define hidden void @_ZN3sat8aig_cuts7add_cutEjmRK7svectorIjjE(ptr noundef nonnull align 8 dereferenceable(480) %this, i32 noundef %v, i64 noundef %lut, ptr noundef nonnull align 8 dereferenceable(8) %args) #5 align 2 {
entry:
  %this.addr = alloca ptr, align 8
  %v.addr = alloca i32, align 4
  %lut.addr = alloca i64, align 8
  %args.addr = alloca ptr, align 8
  %__range1 = alloca ptr, align 8
  %__begin1 = alloca ptr, align 8
  %__end1 = alloca ptr, align 8
  %w = alloca i32, align 4
  %c = alloca %"class.sat::cut", align 8
  %__range13 = alloca ptr, align 8
  %__begin14 = alloca ptr, align 8
  %__end16 = alloca ptr, align 8
  %w11 = alloca i32, align 4
  store ptr %this, ptr %this.addr, align 8
  store i32 %v, ptr %v.addr, align 4
  store i64 %lut, ptr %lut.addr, align 8
  store ptr %args, ptr %args.addr, align 8
  %this1 = load ptr, ptr %this.addr, align 8
  %0 = load i32, ptr %v.addr, align 4
  call void @_ZN3sat8aig_cuts7add_varEj(ptr noundef nonnull align 8 dereferenceable(480) %this1, i32 noundef %0)
  %1 = load ptr, ptr %args.addr, align 8
  store ptr %1, ptr %__range1, align 8
  %2 = load ptr, ptr %__range1, align 8
  %call = call noundef ptr @_ZNK6vectorIjLb0EjE5beginEv(ptr noundef nonnull align 8 dereferenceable(8) %2)
  store ptr %call, ptr %__begin1, align 8
  %3 = load ptr, ptr %__range1, align 8
  %call2 = call noundef ptr @_ZNK6vectorIjLb0EjE3endEv(ptr noundef nonnull align 8 dereferenceable(8) %3)
  store ptr %call2, ptr %__end1, align 8
  br label %for.cond

for.cond:                                         ; preds = %for.inc, %entry
  %4 = load ptr, ptr %__begin1, align 8
  %5 = load ptr, ptr %__end1, align 8
  %cmp = icmp ne ptr %4, %5
  br i1 %cmp, label %for.body, label %for.end

for.body:                                         ; preds = %for.cond
  %6 = load ptr, ptr %__begin1, align 8
  %7 = load i32, ptr %6, align 4
  store i32 %7, ptr %w, align 4
  %8 = load i32, ptr %w, align 4
  call void @_ZN3sat8aig_cuts7add_varEj(ptr noundef nonnull align 8 dereferenceable(480) %this1, i32 noundef %8)
  br label %for.inc

for.inc:                                          ; preds = %for.body
  %9 = load ptr, ptr %__begin1, align 8
  %incdec.ptr = getelementptr inbounds i32, ptr %9, i32 1
  store ptr %incdec.ptr, ptr %__begin1, align 8
  br label %for.cond

for.end:                                          ; preds = %for.cond
  call void @_ZN3sat3cutC2Ev(ptr noundef nonnull align 8 dereferenceable(48) %c)
  %10 = load ptr, ptr %args.addr, align 8
  store ptr %10, ptr %__range13, align 8
  %11 = load ptr, ptr %__range13, align 8
  %call5 = call noundef ptr @_ZNK6vectorIjLb0EjE5beginEv(ptr noundef nonnull align 8 dereferenceable(8) %11)
  store ptr %call5, ptr %__begin14, align 8
  %12 = load ptr, ptr %__range13, align 8
  %call7 = call noundef ptr @_ZNK6vectorIjLb0EjE3endEv(ptr noundef nonnull align 8 dereferenceable(8) %12)
  store ptr %call7, ptr %__end16, align 8
  br label %for.cond8

for.cond8:                                        ; preds = %for.inc13, %for.end
  %13 = load ptr, ptr %__begin14, align 8
  %14 = load ptr, ptr %__end16, align 8
  %cmp9 = icmp ne ptr %13, %14
  br i1 %cmp9, label %for.body10, label %for.end15

for.body10:                                       ; preds = %for.cond8
  %15 = load ptr, ptr %__begin14, align 8
  %16 = load i32, ptr %15, align 4
  store i32 %16, ptr %w11, align 4
  %17 = load i32, ptr %w11, align 4
  %call12 = call noundef zeroext i1 @_ZN3sat3cut3addEj(ptr noundef nonnull align 8 dereferenceable(48) %c, i32 noundef %17)
  br i1 %call12, label %if.end, label %if.then

if.then:                                          ; preds = %for.body10
  call void @_Z26notify_assertion_violationPKciS0_(ptr noundef @.str.7, i32 noundef 368, ptr noundef @.str.22)
  call void @exit(i32 noundef 114) #14
  unreachable

if.end:                                           ; preds = %for.body10
  br label %for.inc13

for.inc13:                                        ; preds = %if.end
  %18 = load ptr, ptr %__begin14, align 8
  %incdec.ptr14 = getelementptr inbounds i32, ptr %18, i32 1
  store ptr %incdec.ptr14, ptr %__begin14, align 8
  br label %for.cond8

for.end15:                                        ; preds = %for.cond8
  %19 = load i64, ptr %lut.addr, align 8
  call void @_ZN3sat3cut9set_tableEm(ptr noundef nonnull align 8 dereferenceable(48) %c, i64 noundef %19)
  %20 = load i32, ptr %v.addr, align 4
  %m_cuts = getelementptr inbounds %"class.sat::aig_cuts", ptr %this1, i32 0, i32 8
  %21 = load i32, ptr %v.addr, align 4
  %call16 = call noundef nonnull align 8 dereferenceable(32) ptr @_ZN6vectorIN3sat7cut_setELb1EjEixEj(ptr noundef nonnull align 8 dereferenceable(8) %m_cuts, i32 noundef %21)
  %call17 = call noundef zeroext i1 @_ZN3sat8aig_cuts10insert_cutEjRKNS_3cutERNS_7cut_setE(ptr noundef nonnull align 8 dereferenceable(480) %this1, i32 noundef %20, ptr noundef nonnull align 8 dereferenceable(48) %c, ptr noundef nonnull align 8 dereferenceable(32) %call16)
  ret void
}