; Function Attrs: mustprogress uwtable
define hidden void @_ZN3sat8aig_cuts7add_cutEjmRK7svectorIjjE(ptr noundef nonnull align 8 dereferenceable(480) %this, i32 noundef %v, i64 noundef %lut, ptr nocapture noundef nonnull readonly align 8 dereferenceable(8) %args) local_unnamed_addr #3 align 2 {
entry:
  %c = alloca %"class.sat::cut", align 8
  tail call void @_ZN3sat8aig_cuts7add_varEj(ptr noundef nonnull align 8 dereferenceable(480) %this, i32 noundef %v)
  %0 = load ptr, ptr %args, align 8
  %cmp.i.i = icmp eq ptr %0, null
  br i1 %cmp.i.i, label %for.end.thread, label %_ZNK6vectorIjLb0EjE3endEv.exit

for.end.thread:                                   ; preds = %entry
  %m_table.i31 = getelementptr inbounds i8, ptr %c, i64 32
  call void @llvm.memset.p0.i64(ptr noundef nonnull align 8 dereferenceable(28) %c, i8 0, i64 28, i1 false)
  call void @llvm.memset.p0.i64(ptr noundef nonnull align 8 dereferenceable(16) %m_table.i31, i8 0, i64 16, i1 false)
  br label %for.end15

_ZNK6vectorIjLb0EjE3endEv.exit:                   ; preds = %entry
  %arrayidx.i.i = getelementptr inbounds i8, ptr %0, i64 -4
  %1 = load i32, ptr %arrayidx.i.i, align 4
  %2 = zext i32 %1 to i64
  %add.ptr.i = getelementptr inbounds i32, ptr %0, i64 %2
  %cmp.not20 = icmp eq i32 %1, 0
  br i1 %cmp.not20, label %for.end.thread34, label %for.body

for.end.thread34:                                 ; preds = %_ZNK6vectorIjLb0EjE3endEv.exit
  %m_table.i35 = getelementptr inbounds i8, ptr %c, i64 32
  call void @llvm.memset.p0.i64(ptr noundef nonnull align 8 dereferenceable(28) %c, i8 0, i64 28, i1 false)
  call void @llvm.memset.p0.i64(ptr noundef nonnull align 8 dereferenceable(16) %m_table.i35, i8 0, i64 16, i1 false)
  br label %_ZNK6vectorIjLb0EjE3endEv.exit15

for.body:                                         ; preds = %_ZNK6vectorIjLb0EjE3endEv.exit, %for.body
  %__begin1.021 = phi ptr [ %incdec.ptr, %for.body ], [ %0, %_ZNK6vectorIjLb0EjE3endEv.exit ]
  %3 = load i32, ptr %__begin1.021, align 4
  tail call void @_ZN3sat8aig_cuts7add_varEj(ptr noundef nonnull align 8 dereferenceable(480) %this, i32 noundef %3)
  %incdec.ptr = getelementptr inbounds i8, ptr %__begin1.021, i64 4
  %cmp.not = icmp eq ptr %incdec.ptr, %add.ptr.i
  br i1 %cmp.not, label %for.end, label %for.body

for.end:                                          ; preds = %for.body
  %.pre = load ptr, ptr %args, align 8
  %m_table.i = getelementptr inbounds i8, ptr %c, i64 32
  call void @llvm.memset.p0.i64(ptr noundef nonnull align 8 dereferenceable(28) %c, i8 0, i64 28, i1 false)
  call void @llvm.memset.p0.i64(ptr noundef nonnull align 8 dereferenceable(16) %m_table.i, i8 0, i64 16, i1 false)
  %cmp.i.i10 = icmp eq ptr %.pre, null
  br i1 %cmp.i.i10, label %for.end15, label %_ZNK6vectorIjLb0EjE3endEv.exit15

_ZNK6vectorIjLb0EjE3endEv.exit15:                 ; preds = %for.end, %for.end.thread34
  %m_table.i37 = phi ptr [ %m_table.i35, %for.end.thread34 ], [ %m_table.i, %for.end ]
  %4 = phi ptr [ %0, %for.end.thread34 ], [ %.pre, %for.end ]
  %arrayidx.i.i12 = getelementptr inbounds i8, ptr %4, i64 -4
  %5 = load i32, ptr %arrayidx.i.i12, align 4
  %6 = zext i32 %5 to i64
  %add.ptr.i14 = getelementptr inbounds i32, ptr %4, i64 %6
  %cmp9.not23 = icmp eq i32 %5, 0
  br i1 %cmp9.not23, label %for.end15, label %for.body10.lr.ph

for.body10.lr.ph:                                 ; preds = %_ZNK6vectorIjLb0EjE3endEv.exit15
  %m_size.i = getelementptr inbounds i8, ptr %c, i64 4
  %m_elems.i = getelementptr inbounds i8, ptr %c, i64 8
  br label %for.body10

for.body10:                                       ; preds = %for.body10.lr.ph, %for.inc13
  %indvars.iv = phi i64 [ 0, %for.body10.lr.ph ], [ %indvars.iv.next, %for.inc13 ]
  %__begin14.025 = phi ptr [ %4, %for.body10.lr.ph ], [ %incdec.ptr14, %for.inc13 ]
  %or.i2224 = phi i32 [ 0, %for.body10.lr.ph ], [ %or.i, %for.inc13 ]
  %exitcond.not = icmp eq i64 %indvars.iv, 5
  br i1 %exitcond.not, label %if.then, label %for.inc13

if.then:                                          ; preds = %for.body10
  tail call void @_Z26notify_assertion_violationPKciS0_(ptr noundef nonnull @.str.7, i32 noundef 368, ptr noundef nonnull @.str.22)
  tail call void @exit(i32 noundef 114) #19
  unreachable

for.inc13:                                        ; preds = %for.body10
  %7 = load i32, ptr %__begin14.025, align 4
  %indvars.iv.next = add nuw nsw i64 %indvars.iv, 1
  %8 = trunc i64 %indvars.iv.next to i32
  store i32 %8, ptr %m_size.i, align 4
  %arrayidx.i = getelementptr inbounds [5 x i32], ptr %m_elems.i, i64 0, i64 %indvars.iv
  store i32 %7, ptr %arrayidx.i, align 4
  %and.i = and i32 %7, 31
  %shl.i = shl nuw i32 1, %and.i
  %or.i = or i32 %or.i2224, %shl.i
  store i32 %or.i, ptr %c, align 8
  %incdec.ptr14 = getelementptr inbounds i8, ptr %__begin14.025, i64 4
  %cmp9.not = icmp eq ptr %incdec.ptr14, %add.ptr.i14
  br i1 %cmp9.not, label %for.end15.loopexit, label %for.body10

for.end15.loopexit:                               ; preds = %for.inc13
  %9 = and i64 %indvars.iv.next, 4294967295
  br label %for.end15

for.end15:                                        ; preds = %for.end.thread, %for.end, %for.end15.loopexit, %_ZNK6vectorIjLb0EjE3endEv.exit15
  %m_table.i3342 = phi ptr [ %m_table.i37, %for.end15.loopexit ], [ %m_table.i37, %_ZNK6vectorIjLb0EjE3endEv.exit15 ], [ %m_table.i31, %for.end.thread ], [ %m_table.i, %for.end ]
  %sh_prom.i.i = phi i64 [ %9, %for.end15.loopexit ], [ 0, %_ZNK6vectorIjLb0EjE3endEv.exit15 ], [ 0, %for.end.thread ], [ 0, %for.end ]
  %shl.i.i = shl nuw i64 1, %sh_prom.i.i
  %notmask.i.i = shl nsw i64 -1, %shl.i.i
  %sub.i.i = xor i64 %notmask.i.i, -1
  %and.i16 = and i64 %sub.i.i, %lut
  store i64 %and.i16, ptr %m_table.i3342, align 8
  %m_cuts = getelementptr inbounds i8, ptr %this, i64 176
  %10 = load ptr, ptr %m_cuts, align 8
  %idxprom.i18 = zext i32 %v to i64
  %arrayidx.i19 = getelementptr inbounds %"class.sat::cut_set", ptr %10, i64 %idxprom.i18
  %call17 = call noundef zeroext i1 @_ZN3sat8aig_cuts10insert_cutEjRKNS_3cutERNS_7cut_setE(ptr noundef nonnull align 8 dereferenceable(480) %this, i32 noundef %v, ptr noundef nonnull align 8 dereferenceable(48) %c, ptr noundef nonnull align 8 dereferenceable(32) %arrayidx.i19)
  ret void
}